Certificate:
    Data:
        Version: 3 (0x2)
        Serial Number: 2 (0x2)
        Signature Algorithm: sha256WithRSAEncryption
        Issuer: CN=ca.lte.svc.cluster.local, C=KO, ST=Seoul, L=Nowon, O=NextEPC, OU=Tests
        Validity
            Not Before: May  1 12:56:39 2020 GMT
            Not After : Apr 29 12:56:39 2030 GMT
        Subject: C=KO, ST=Seoul, O=NextEPC, OU=Tests, CN=hss.lte.svc.cluster.local
        Subject Public Key Info:
            Public Key Algorithm: rsaEncryption
                RSA Public-Key: (1024 bit)
                Modulus:
                    00:b9:7e:60:5b:fe:ff:da:e0:2a:9a:ea:7c:67:84:
                    e8:3a:3f:81:69:f5:c8:8f:c8:28:07:b5:0d:ab:1e:
                    18:91:ea:76:33:32:ef:dd:c2:68:9e:39:fb:7c:e6:
                    8c:1e:9c:e7:1d:09:7d:93:1d:91:d8:df:16:09:d0:
                    44:fd:07:9e:0f:3d:1f:c6:ab:0e:99:11:b7:36:94:
                    f2:26:3d:ec:4b:40:66:b7:17:52:b1:06:f0:ba:7d:
                    a4:9e:de:f6:77:7c:ce:83:77:08:d8:31:fe:dd:fb:
                    c9:aa:cf:3f:6b:52:57:b9:a1:c2:13:f9:7f:e2:ff:
                    af:ef:a6:b6:bd:42:a2:80:81
                Exponent: 65537 (0x10001)
        X509v3 extensions:
            X509v3 Basic Constraints: 
                CA:FALSE
            Netscape Comment: 
                OpenSSL Generated Certificate
            X509v3 Subject Key Identifier: 
                8C:19:DF:D9:2A:D8:EE:A1:45:B9:67:4C:AD:C6:35:97:82:83:9E:DC
            X509v3 Authority Key Identifier: 
                keyid:CC:C2:4D:37:9C:4E:5B:ED:F0:7A:3A:BB:C4:5A:F9:C5:56:5B:EE:4B

    Signature Algorithm: sha256WithRSAEncryption
         2e:99:57:c6:0c:09:00:ed:d4:cf:fa:34:74:8a:a4:05:49:fe:
         d0:05:35:32:24:62:a2:7f:db:b1:16:85:d2:e5:97:17:5b:99:
         eb:4e:20:5a:49:d6:b1:65:c9:49:8e:26:4f:02:38:08:61:8b:
         07:78:9b:05:4b:7e:da:d9:05:58:d4:ed:2b:e9:21:4d:1c:9b:
         df:eb:54:8e:9c:77:c6:df:70:9a:71:f1:79:5e:5d:4e:31:73:
         5f:ab:4b:bc:b3:82:40:8d:6a:8c:b6:a0:c7:31:b3:7a:a6:14:
         75:9b:cb:7f:8c:ed:d3:be:84:57:60:b9:ee:00:ea:55:8d:48:
         ed:32
-----BEGIN CERTIFICATE-----
MIICxjCCAi+gAwIBAgIBAjANBgkqhkiG9w0BAQsFADByMSEwHwYDVQQDDBhjYS5s
dGUuc3ZjLmNsdXN0ZXIubG9jYWwxCzAJBgNVBAYTAktPMQ4wDAYDVQQIDAVTZW91
bDEOMAwGA1UEBwwFTm93b24xEDAOBgNVBAoMB05leHRFUEMxDjAMBgNVBAsMBVRl
c3RzMB4XDTIwMDUwMTEyNTYzOVoXDTMwMDQyOTEyNTYzOVowYzELMAkGA1UEBhMC
S08xDjAMBgNVBAgMBVNlb3VsMRAwDgYDVQQKDAdOZXh0RVBDMQ4wDAYDVQQLDAVU
ZXN0czEiMCAGA1UEAwwZaHNzLmx0ZS5zdmMuY2x1c3Rlci5sb2NhbDCBnzANBgkq
hkiG9w0BAQEFAAOBjQAwgYkCgYEAuX5gW/7/2uAqmup8Z4ToOj+BafXIj8goB7UN
qx4Ykep2MzLv3cJonjn7fOaMHpznHQl9kx2R2N8WCdBE/QeeDz0fxqsOmRG3NpTy
Jj3sS0BmtxdSsQbwun2knt72d3zOg3cI2DH+3fvJqs8/a1JXuaHCE/l/4v+v76a2
vUKigIECAwEAAaN7MHkwCQYDVR0TBAIwADAsBglghkgBhvhCAQ0EHxYdT3BlblNT
TCBHZW5lcmF0ZWQgQ2VydGlmaWNhdGUwHQYDVR0OBBYEFIwZ39kq2O6hRblnTK3G
NZeCg57cMB8GA1UdIwQYMBaAFMzCTTecTlvt8Ho6u8Ra+cVWW+5LMA0GCSqGSIb3
DQEBCwUAA4GBAC6ZV8YMCQDt1M/6NHSKpAVJ/tAFNTIkYqJ/27EWhdLllxdbmetO
IFpJ1rFlyUmOJk8COAhhiwd4mwVLftrZBVjU7SvpIU0cm9/rVI6cd8bfcJpx8Xle
XU4xc1+rS7yzgkCNaoy2oMcxs3qmFHWby3+M7dO+hFdgue4A6lWNSO0y
-----END CERTIFICATE-----
