Certificate:
    Data:
        Version: 3 (0x2)
        Serial Number: 1 (0x1)
        Signature Algorithm: sha256WithRSAEncryption
        Issuer: CN=ca.lte.svc.cluster.local, C=KO, ST=Seoul, L=Nowon, O=NextEPC, OU=Tests
        Validity
            Not Before: May  1 12:56:39 2020 GMT
            Not After : Apr 29 12:56:39 2030 GMT
        Subject: C=KO, ST=Seoul, O=NextEPC, OU=Tests, CN=mme.lte.svc.cluster.local
        Subject Public Key Info:
            Public Key Algorithm: rsaEncryption
                RSA Public-Key: (1024 bit)
                Modulus:
                    00:e7:a2:5a:f5:ab:ae:ec:a1:a0:f5:aa:f8:22:6d:
                    8a:3c:6b:c0:47:18:72:b9:90:18:1a:85:d0:1c:8c:
                    9d:12:74:4d:5d:de:b8:6d:b9:82:53:51:dd:7a:76:
                    ad:9e:51:7d:41:a3:f7:e0:9b:71:0f:8a:e7:cc:a4:
                    8f:25:d4:c7:71:72:3b:96:8f:53:53:6e:aa:8a:7f:
                    97:46:3e:32:5e:a2:a3:bf:be:b2:ed:41:a1:38:bb:
                    12:ee:38:1d:50:72:0d:2c:41:30:ba:a3:d5:1c:00:
                    c3:ba:7b:63:64:cb:ee:4f:47:7d:ec:fb:30:a8:45:
                    9b:a9:88:0b:05:bb:fa:a1:db
                Exponent: 65537 (0x10001)
        X509v3 extensions:
            X509v3 Basic Constraints: 
                CA:FALSE
            Netscape Comment: 
                OpenSSL Generated Certificate
            X509v3 Subject Key Identifier: 
                FA:D6:48:44:23:79:26:E1:77:B5:8D:40:0A:B7:F8:5E:44:DE:82:2E
            X509v3 Authority Key Identifier: 
                keyid:CC:C2:4D:37:9C:4E:5B:ED:F0:7A:3A:BB:C4:5A:F9:C5:56:5B:EE:4B

    Signature Algorithm: sha256WithRSAEncryption
         87:4c:4f:b8:12:6d:a2:33:97:d8:4f:ee:4c:64:2a:60:a7:af:
         07:5a:cf:aa:08:4a:62:65:85:c4:b1:99:a3:14:8e:ff:1f:55:
         d2:ba:9d:ad:97:d2:59:a9:0d:f6:e7:a6:40:13:98:db:1d:c1:
         e2:d5:1f:43:c4:a0:ce:12:be:a0:6d:f5:b6:aa:85:87:6a:5d:
         51:36:e1:ba:9a:4a:9b:ab:de:94:b2:db:2e:bf:8f:eb:32:a1:
         b9:d1:5f:84:92:23:00:3c:58:fa:d1:7e:34:7c:ad:f1:ca:df:
         55:65:f1:18:e6:e6:82:13:8f:44:a2:44:ed:1c:27:d1:85:ff:
         40:c2
-----BEGIN CERTIFICATE-----
MIICxjCCAi+gAwIBAgIBATANBgkqhkiG9w0BAQsFADByMSEwHwYDVQQDDBhjYS5s
dGUuc3ZjLmNsdXN0ZXIubG9jYWwxCzAJBgNVBAYTAktPMQ4wDAYDVQQIDAVTZW91
bDEOMAwGA1UEBwwFTm93b24xEDAOBgNVBAoMB05leHRFUEMxDjAMBgNVBAsMBVRl
c3RzMB4XDTIwMDUwMTEyNTYzOVoXDTMwMDQyOTEyNTYzOVowYzELMAkGA1UEBhMC
S08xDjAMBgNVBAgMBVNlb3VsMRAwDgYDVQQKDAdOZXh0RVBDMQ4wDAYDVQQLDAVU
ZXN0czEiMCAGA1UEAwwZbW1lLmx0ZS5zdmMuY2x1c3Rlci5sb2NhbDCBnzANBgkq
hkiG9w0BAQEFAAOBjQAwgYkCgYEA56Ja9auu7KGg9ar4Im2KPGvARxhyuZAYGoXQ
HIydEnRNXd64bbmCU1HdenatnlF9QaP34JtxD4rnzKSPJdTHcXI7lo9TU26qin+X
Rj4yXqKjv76y7UGhOLsS7jgdUHINLEEwuqPVHADDuntjZMvuT0d97PswqEWbqYgL
Bbv6odsCAwEAAaN7MHkwCQYDVR0TBAIwADAsBglghkgBhvhCAQ0EHxYdT3BlblNT
TCBHZW5lcmF0ZWQgQ2VydGlmaWNhdGUwHQYDVR0OBBYEFPrWSEQjeSbhd7WNQAq3
+F5E3oIuMB8GA1UdIwQYMBaAFMzCTTecTlvt8Ho6u8Ra+cVWW+5LMA0GCSqGSIb3
DQEBCwUAA4GBAIdMT7gSbaIzl9hP7kxkKmCnrwdaz6oISmJlhcSxmaMUjv8fVdK6
na2X0lmpDfbnpkATmNsdweLVH0PEoM4SvqBt9baqhYdqXVE24bqaSpur3pSy2y6/
j+syobnRX4SSIwA8WPrRfjR8rfHK31Vl8Rjm5oITj0SiRO0cJ9GF/0DC
-----END CERTIFICATE-----
