Certificate:
    Data:
        Version: 3 (0x2)
        Serial Number: 3 (0x3)
        Signature Algorithm: sha256WithRSAEncryption
        Issuer: CN=ca.lte.svc.cluster.local, C=KO, ST=Seoul, L=Nowon, O=NextEPC, OU=Tests
        Validity
            Not Before: May  1 12:56:39 2020 GMT
            Not After : Apr 29 12:56:39 2030 GMT
        Subject: C=KO, ST=Seoul, O=NextEPC, OU=Tests, CN=pgw.lte.svc.cluster.local
        Subject Public Key Info:
            Public Key Algorithm: rsaEncryption
                RSA Public-Key: (1024 bit)
                Modulus:
                    00:be:a9:21:60:94:d3:90:18:72:dc:fc:82:77:d7:
                    84:09:10:fa:2e:bd:be:2c:4d:d3:e9:77:86:0d:ee:
                    58:01:4a:dc:cd:00:8b:4e:ba:be:5a:ec:ff:9b:79:
                    68:3a:b9:1a:d3:c5:3f:b0:b6:37:38:d6:5e:6e:b0:
                    67:ce:39:ae:2a:e3:77:b8:c1:80:cc:d7:78:a2:18:
                    8c:68:2c:ea:dd:f6:07:59:86:5f:12:59:74:f7:a4:
                    d0:7d:88:b9:13:20:15:6f:1a:e3:07:c1:2b:bd:ed:
                    97:84:36:17:ae:48:55:c7:15:20:b5:67:e8:80:a0:
                    1b:c3:16:de:e8:76:4d:71:3b
                Exponent: 65537 (0x10001)
        X509v3 extensions:
            X509v3 Basic Constraints: 
                CA:FALSE
            Netscape Comment: 
                OpenSSL Generated Certificate
            X509v3 Subject Key Identifier: 
                16:A6:0E:73:DB:C3:84:DF:DE:18:DA:83:84:8C:49:C7:53:61:5D:E8
            X509v3 Authority Key Identifier: 
                keyid:CC:C2:4D:37:9C:4E:5B:ED:F0:7A:3A:BB:C4:5A:F9:C5:56:5B:EE:4B

    Signature Algorithm: sha256WithRSAEncryption
         49:c8:e8:a2:51:d0:9b:0f:6c:dd:31:a2:d0:02:23:8b:16:ce:
         fd:3f:c5:39:22:82:14:9d:f7:8b:c9:9a:74:fe:19:5a:8e:59:
         8e:63:a3:6a:1f:fe:ac:45:ec:3c:e8:14:33:1c:a8:df:1e:c0:
         cc:fc:c3:51:ad:79:9d:a6:51:d0:38:f1:19:0a:c2:cc:16:ff:
         d2:2b:5d:57:22:e8:89:7e:28:2f:d8:e5:59:81:63:7f:54:0e:
         6d:8a:5f:b1:43:a9:60:47:55:d9:d8:eb:9f:49:51:dd:ac:50:
         60:51:29:df:98:4c:70:85:db:99:61:2b:2b:ec:f2:57:b4:2f:
         0d:57
-----BEGIN CERTIFICATE-----
MIICxjCCAi+gAwIBAgIBAzANBgkqhkiG9w0BAQsFADByMSEwHwYDVQQDDBhjYS5s
dGUuc3ZjLmNsdXN0ZXIubG9jYWwxCzAJBgNVBAYTAktPMQ4wDAYDVQQIDAVTZW91
bDEOMAwGA1UEBwwFTm93b24xEDAOBgNVBAoMB05leHRFUEMxDjAMBgNVBAsMBVRl
c3RzMB4XDTIwMDUwMTEyNTYzOVoXDTMwMDQyOTEyNTYzOVowYzELMAkGA1UEBhMC
S08xDjAMBgNVBAgMBVNlb3VsMRAwDgYDVQQKDAdOZXh0RVBDMQ4wDAYDVQQLDAVU
ZXN0czEiMCAGA1UEAwwZcGd3Lmx0ZS5zdmMuY2x1c3Rlci5sb2NhbDCBnzANBgkq
hkiG9w0BAQEFAAOBjQAwgYkCgYEAvqkhYJTTkBhy3PyCd9eECRD6Lr2+LE3T6XeG
De5YAUrczQCLTrq+Wuz/m3loOrka08U/sLY3ONZebrBnzjmuKuN3uMGAzNd4ohiM
aCzq3fYHWYZfEll096TQfYi5EyAVbxrjB8Erve2XhDYXrkhVxxUgtWfogKAbwxbe
6HZNcTsCAwEAAaN7MHkwCQYDVR0TBAIwADAsBglghkgBhvhCAQ0EHxYdT3BlblNT
TCBHZW5lcmF0ZWQgQ2VydGlmaWNhdGUwHQYDVR0OBBYEFBamDnPbw4Tf3hjag4SM
ScdTYV3oMB8GA1UdIwQYMBaAFMzCTTecTlvt8Ho6u8Ra+cVWW+5LMA0GCSqGSIb3
DQEBCwUAA4GBAEnI6KJR0JsPbN0xotACI4sWzv0/xTkighSd94vJmnT+GVqOWY5j
o2of/qxF7DzoFDMcqN8ewMz8w1GteZ2mUdA48RkKwswW/9IrXVci6Il+KC/Y5VmB
Y39UDm2KX7FDqWBHVdnY659JUd2sUGBRKd+YTHCF25lhKyvs8le0Lw1X
-----END CERTIFICATE-----
