Certificate:
    Data:
        Version: 3 (0x2)
        Serial Number: 4 (0x4)
        Signature Algorithm: sha256WithRSAEncryption
        Issuer: CN=ca.lte.svc.cluster.local, C=KO, ST=Seoul, L=Nowon, O=NextEPC, OU=Tests
        Validity
            Not Before: May  1 12:56:39 2020 GMT
            Not After : Apr 29 12:56:39 2030 GMT
        Subject: C=KO, ST=Seoul, O=NextEPC, OU=Tests, CN=pcrf.lte.svc.cluster.local
        Subject Public Key Info:
            Public Key Algorithm: rsaEncryption
                RSA Public-Key: (1024 bit)
                Modulus:
                    00:b6:52:36:3d:9c:c7:1a:07:42:7c:a7:6a:3b:f2:
                    37:a9:79:a7:26:e2:e7:54:7a:b4:75:98:de:8e:a6:
                    7e:6b:84:c9:39:81:30:ee:87:03:32:18:3c:ee:8a:
                    6b:ae:86:c4:27:c9:20:d1:b3:55:e7:aa:43:c2:d6:
                    c8:59:5c:0d:56:6a:f6:1e:af:65:db:3e:8d:8c:84:
                    a3:72:41:f2:06:f1:a0:b3:64:f0:cf:f9:19:49:07:
                    09:28:9d:db:c9:f3:6b:bf:b8:99:2c:0e:e6:a8:e7:
                    20:80:1e:e4:49:11:5b:19:e4:ea:4c:f8:86:cd:3b:
                    8a:fc:ca:27:8b:72:4b:be:e5
                Exponent: 65537 (0x10001)
        X509v3 extensions:
            X509v3 Basic Constraints: 
                CA:FALSE
            Netscape Comment: 
                OpenSSL Generated Certificate
            X509v3 Subject Key Identifier: 
                A9:07:BD:C5:92:4E:B1:3F:01:FA:70:83:64:B4:E3:FD:D7:ED:BC:77
            X509v3 Authority Key Identifier: 
                keyid:CC:C2:4D:37:9C:4E:5B:ED:F0:7A:3A:BB:C4:5A:F9:C5:56:5B:EE:4B

    Signature Algorithm: sha256WithRSAEncryption
         56:0a:8d:92:1a:c9:2b:09:f0:29:55:4e:e8:38:fe:f1:e3:53:
         ae:80:15:9e:82:ab:04:04:9d:ad:cb:be:9a:90:21:b0:bd:c2:
         a3:a3:dd:e1:84:01:69:95:6b:3e:33:dc:03:19:75:ad:0c:2e:
         4a:b2:13:68:1c:77:03:ad:67:dc:b6:61:17:96:fc:ae:ff:b9:
         5d:5e:66:45:7f:ce:e8:13:22:e9:89:e1:e4:a5:df:80:df:b6:
         8d:e6:5e:30:56:55:af:d9:67:83:0f:0c:c0:e2:65:2e:d7:6e:
         52:d4:a8:0b:82:b3:37:5f:76:74:44:a0:e2:0d:cc:b6:27:85:
         79:c5
-----BEGIN CERTIFICATE-----
MIICxzCCAjCgAwIBAgIBBDANBgkqhkiG9w0BAQsFADByMSEwHwYDVQQDDBhjYS5s
dGUuc3ZjLmNsdXN0ZXIubG9jYWwxCzAJBgNVBAYTAktPMQ4wDAYDVQQIDAVTZW91
bDEOMAwGA1UEBwwFTm93b24xEDAOBgNVBAoMB05leHRFUEMxDjAMBgNVBAsMBVRl
c3RzMB4XDTIwMDUwMTEyNTYzOVoXDTMwMDQyOTEyNTYzOVowZDELMAkGA1UEBhMC
S08xDjAMBgNVBAgMBVNlb3VsMRAwDgYDVQQKDAdOZXh0RVBDMQ4wDAYDVQQLDAVU
ZXN0czEjMCEGA1UEAwwacGNyZi5sdGUuc3ZjLmNsdXN0ZXIubG9jYWwwgZ8wDQYJ
KoZIhvcNAQEBBQADgY0AMIGJAoGBALZSNj2cxxoHQnynajvyN6l5pybi51R6tHWY
3o6mfmuEyTmBMO6HAzIYPO6Ka66GxCfJINGzVeeqQ8LWyFlcDVZq9h6vZds+jYyE
o3JB8gbxoLNk8M/5GUkHCSid28nza7+4mSwO5qjnIIAe5EkRWxnk6kz4hs07ivzK
J4tyS77lAgMBAAGjezB5MAkGA1UdEwQCMAAwLAYJYIZIAYb4QgENBB8WHU9wZW5T
U0wgR2VuZXJhdGVkIENlcnRpZmljYXRlMB0GA1UdDgQWBBSpB73Fkk6xPwH6cINk
tOP91+28dzAfBgNVHSMEGDAWgBTMwk03nE5b7fB6OrvEWvnFVlvuSzANBgkqhkiG
9w0BAQsFAAOBgQBWCo2SGskrCfApVU7oOP7x41OugBWegqsEBJ2ty76akCGwvcKj
o93hhAFplWs+M9wDGXWtDC5KshNoHHcDrWfctmEXlvyu/7ldXmZFf87oEyLpieHk
pd+A37aN5l4wVlWv2WeDDwzA4mUu125S1KgLgrM3X3Z0RKDiDcy2J4V5xQ==
-----END CERTIFICATE-----
